target datalayout = "e-m:e-p270:32:32-p271:32:32-p272:64:64-i64:64-i128:128-f80:128-n8:16:32:64-S128"
target triple = "x86_64-pc-linux-gnu"

%class.bv_recognizers = type { i32 }
%class.bv_util = type { %class.bv_recognizers, ptr, ptr }

@.str.108 = private unnamed_addr constant [110 x i8] c"generated/home/dtcxzyw/WorkSpace/Projects/compilers/llvm-opt-benchmark/bench/z3/z3/src/ast/bv_decl_plugin.cpp\00", align 1
@.str.109 = private unnamed_addr constant [56 x i8] c"Failed to verify: m_plugin->get_int2bv_size(1, &p, sz)\0A\00", align 1

; Function Attrs: mustprogress uwtable
define hidden noundef i32 @_ZN7bv_util15get_int2bv_sizeERK9parameter(ptr noundef nonnull align 8 dereferenceable(24) %0, ptr noundef nonnull align 8 dereferenceable(16) %1) #4 align 2 {
  %3 = alloca ptr, align 8
  %4 = alloca ptr, align 8
  %5 = alloca i32, align 4
  store ptr %0, ptr %3, align 8, !tbaa !207
  store ptr %1, ptr %4, align 8, !tbaa !142
  %6 = load ptr, ptr %3, align 8
  call void @llvm.lifetime.start.p0(i64 4, ptr %5) #3
  store i32 0, ptr %5, align 4, !tbaa !43
  %7 = getelementptr inbounds nuw %class.bv_util, ptr %6, i32 0, i32 2
  %8 = load ptr, ptr %7, align 8, !tbaa !209
  %9 = load ptr, ptr %4, align 8, !tbaa !142
  %10 = call noundef zeroext i1 @_ZN14bv_decl_plugin15get_int2bv_sizeEjPK9parameterRi(ptr noundef nonnull align 8 dereferenceable(608) %8, i32 noundef 1, ptr noundef %9, ptr noundef nonnull align 4 dereferenceable(4) %5)
  br i1 %10, label %12, label %11

11:                                               ; preds = %2
  call void @_Z26notify_assertion_violationPKciS0_(ptr noundef @.str.108, i32 noundef 933, ptr noundef @.str.109)
  call void @_Z18invoke_exit_actionj(i32 noundef 114)
  br label %12

12:                                               ; preds = %11, %2
  %13 = load i32, ptr %5, align 4, !tbaa !43
  call void @llvm.lifetime.end.p0(i64 4, ptr %5) #3
  ret i32 %13
}