; Function Attrs: mustprogress uwtable
define hidden noundef i32 @_ZN7bv_util15get_int2bv_sizeERK9parameter(ptr noundef nonnull readonly align 8 captures(none) dereferenceable(24) %0, ptr noundef nonnull readonly align 8 captures(none) dereferenceable(16) %1) local_unnamed_addr #3 align 2 {
  %3 = alloca i32, align 4
  call void @llvm.lifetime.start.p0(i64 4, ptr nonnull %3) #24
  store i32 0, ptr %3, align 4, !tbaa !38
  %4 = getelementptr inbounds nuw i8, ptr %0, i64 16
  %5 = load ptr, ptr %4, align 8, !tbaa !182
  %6 = call noundef zeroext i1 @_ZN14bv_decl_plugin15get_int2bv_sizeEjPK9parameterRi(ptr noundef nonnull align 8 dereferenceable(608) %5, i32 noundef 1, ptr noundef nonnull %1, ptr noundef nonnull align 4 dereferenceable(4) %3)
  br i1 %6, label %8, label %7

7:                                                ; preds = %2
  tail call void @_Z26notify_assertion_violationPKciS0_(ptr noundef nonnull @.str.108, i32 noundef 933, ptr noundef nonnull @.str.109)
  tail call void @_Z18invoke_exit_actionj(i32 noundef 114)
  br label %8

8:                                                ; preds = %7, %2
  %9 = load i32, ptr %3, align 4, !tbaa !38
  call void @llvm.lifetime.end.p0(i64 4, ptr nonnull %3) #24
  ret i32 %9
}